; Function Attrs: mustprogress nounwind uwtable
define hidden void @_ZN17arith_decl_pluginD2Ev(ptr noundef nonnull align 8 captures(none) dereferenceable(441) initializes((0, 8)) %0) unnamed_addr #5 align 2 personality ptr @__gxx_personality_v0 {
  store ptr getelementptr inbounds nuw inrange(-16, 168) (i8, ptr @_ZTV17arith_decl_plugin, i64 16), ptr %0, align 8, !tbaa !133
  %2 = getelementptr inbounds nuw i8, ptr %0, i64 24
  %3 = load ptr, ptr %2, align 8, !tbaa !3
  %4 = icmp eq ptr %3, null
  br i1 %4, label %_Z7deallocIN17arith_decl_plugin25algebraic_numbers_wrapperEEvPT_.exit, label %5

5:                                                ; preds = %1
  tail call void @_ZN17arith_decl_plugin25algebraic_numbers_wrapperD2Ev(ptr noundef nonnull align 8 dereferenceable(784) %3) #24
  invoke void @_ZN6memory10deallocateEPv(ptr noundef nonnull %3)
          to label %_Z7deallocIN17arith_decl_plugin25algebraic_numbers_wrapperEEvPT_.exit unwind label %20

_Z7deallocIN17arith_decl_plugin25algebraic_numbers_wrapperEEvPT_.exit: ; preds = %1, %5
  %6 = getelementptr inbounds nuw i8, ptr %0, i64 432
  %7 = load ptr, ptr %6, align 8, !tbaa !120
  %.not.i.i = icmp eq ptr %7, null
  br i1 %.not.i.i, label %_ZN6vectorIP3appLb0EjED2Ev.exit, label %8

8:                                                ; preds = %_Z7deallocIN17arith_decl_plugin25algebraic_numbers_wrapperEEvPT_.exit
  %9 = getelementptr inbounds i8, ptr %7, i64 -8
  invoke void @_ZN6memory10deallocateEPv(ptr noundef nonnull %9)
          to label %_ZN6vectorIP3appLb0EjED2Ev.exit unwind label %10

10:                                               ; preds = %8
  %11 = landingpad { ptr, i32 }
          catch ptr null
  %12 = extractvalue { ptr, i32 } %11, 0
  tail call void @__clang_call_terminate(ptr %12) #25
  unreachable

_ZN6vectorIP3appLb0EjED2Ev.exit:                  ; preds = %_Z7deallocIN17arith_decl_plugin25algebraic_numbers_wrapperEEvPT_.exit, %8
  %13 = getelementptr inbounds nuw i8, ptr %0, i64 424
  %14 = load ptr, ptr %13, align 8, !tbaa !120
  %.not.i.i1 = icmp eq ptr %14, null
  br i1 %.not.i.i1, label %_ZN6vectorIP3appLb0EjED2Ev.exit2, label %15

15:                                               ; preds = %_ZN6vectorIP3appLb0EjED2Ev.exit
  %16 = getelementptr inbounds i8, ptr %14, i64 -8
  invoke void @_ZN6memory10deallocateEPv(ptr noundef nonnull %16)
          to label %_ZN6vectorIP3appLb0EjED2Ev.exit2 unwind label %17

17:                                               ; preds = %15
  %18 = landingpad { ptr, i32 }
          catch ptr null
  %19 = extractvalue { ptr, i32 } %18, 0
  tail call void @__clang_call_terminate(ptr %19) #25
  unreachable

_ZN6vectorIP3appLb0EjED2Ev.exit2:                 ; preds = %_ZN6vectorIP3appLb0EjED2Ev.exit, %15
  ret void

20:                                               ; preds = %5
  %21 = landingpad { ptr, i32 }
          catch ptr null
  %22 = extractvalue { ptr, i32 } %21, 0
  tail call void @__clang_call_terminate(ptr %22) #25
  unreachable
}